(dp1
S'allCals'
p2
(lp3
(dp4
Vkind
p5
Vcalendar#calendarListEntry
p6
sVforegroundColor
p7
V#000000
p8
sVdefaultReminders
p9
(lp10
(dp11
Vminutes
p12
I30
sVmethod
p13
Vpopup
p14
sa(dp15
Vminutes
p16
I10
sVmethod
p17
Vemail
p18
sasVprimary
p19
I01
sVcolorId
p20
V2
sVselected
p21
I01
sVnotificationSettings
p22
(dp23
Vnotifications
p24
(lp25
(dp26
Vtype
p27
VeventCreation
p28
sVmethod
p29
Vemail
p30
sa(dp31
Vtype
p32
VeventChange
p33
sVmethod
p34
Vemail
p35
sa(dp36
Vtype
p37
VeventCancellation
p38
sVmethod
p39
Vemail
p40
sa(dp41
Vtype
p42
VeventResponse
p43
sVmethod
p44
Vemail
p45
sassVsummary
p46
Vmiguelmota2@gmail.com
p47
sVetag
p48
V"0"
p49
sVbackgroundColor
p50
V#d06b64
p51
sVtimeZone
p52
VAmerica/Los_Angeles
p53
sVaccessRole
p54
Vowner
p55
sVid
p56
Vmiguelmota2@gmail.com
p57
sa(dp58
Vkind
p59
Vcalendar#calendarListEntry
p60
sVforegroundColor
p61
V#000000
p62
sVdefaultReminders
p63
(lp64
sVdescription
p65
VDisplays birthdays of people in Google Contacts and optionally 'Your Circles' from Google+. Also displays anniversary and other event dates from Google Contacts, if applicable.
p66
sVcolorId
p67
V13
p68
sVselected
p69
I01
sVsummary
p70
VBirthdays
p71
sVetag
p72
V"1417545004444000"
p73
sVbackgroundColor
p74
V#92e1c0
p75
sVtimeZone
p76
VAmerica/Los_Angeles
p77
sVaccessRole
p78
Vreader
p79
sVid
p80
V#contacts@group.v.calendar.google.com
p81
sa(dp82
Vkind
p83
Vcalendar#calendarListEntry
p84
sVforegroundColor
p85
V#000000
p86
sVdefaultReminders
p87
(lp88
sVdescription
p89
VHolidays and Observances in United States
p90
sVcolorId
p91
V15
p92
sVselected
p93
I01
sVsummary
p94
VHolidays in United States
p95
sVetag
p96
V"0"
p97
sVbackgroundColor
p98
V#9fc6e7
p99
sVtimeZone
p100
VAmerica/Los_Angeles
p101
sVaccessRole
p102
Vreader
p103
sVid
p104
Ven.usa#holiday@group.v.calendar.google.com
p105
sas.