(dp1
S'allCals'
p2
(lp3
(dp4
Vkind
p5
Vcalendar#calendarListEntry
p6
sVforegroundColor
p7
V#000000
p8
sVdefaultReminders
p9
(lp10
(dp11
Vminutes
p12
I10
sVmethod
p13
Vpopup
p14
sasVprimary
p15
I01
sVcolorId
p16
V17
p17
sVselected
p18
I01
sVnotificationSettings
p19
(dp20
Vnotifications
p21
(lp22
(dp23
Vtype
p24
VeventCreation
p25
sVmethod
p26
Vemail
p27
sa(dp28
Vtype
p29
VeventChange
p30
sVmethod
p31
Vemail
p32
sa(dp33
Vtype
p34
VeventCancellation
p35
sVmethod
p36
Vemail
p37
sa(dp38
Vtype
p39
VeventResponse
p40
sVmethod
p41
Vemail
p42
sassVsummary
p43
Vmiguel@acorns.com
p44
sVetag
p45
V"1404259661306000"
p46
sVbackgroundColor
p47
V#9a9cff
p48
sVtimeZone
p49
VAmerica/Los_Angeles
p50
sVaccessRole
p51
Vowner
p52
sVid
p53
Vmiguel@acorns.com
p54
sa(dp55
Vkind
p56
Vcalendar#calendarListEntry
p57
sVforegroundColor
p58
V#000000
p59
sVdefaultReminders
p60
(lp61
sVdescription
p62
VDisplays birthdays of people in Google Contacts and optionally 'Your Circles' from Google+. Also displays anniversary and other event dates from Google Contacts, if applicable.
p63
sVcolorId
p64
V3
sVselected
p65
I01
sVsummary
p66
VBirthdays
p67
sVetag
p68
V"1423853048584000"
p69
sVbackgroundColor
p70
V#f83a22
p71
sVtimeZone
p72
VAmerica/Los_Angeles
p73
sVaccessRole
p74
Vreader
p75
sVid
p76
V#contacts@group.v.calendar.google.com
p77
sa(dp78
Vkind
p79
Vcalendar#calendarListEntry
p80
sVforegroundColor
p81
V#000000
p82
sVdefaultReminders
p83
(lp84
sVdescription
p85
VHolidays and Observances in United States
p86
sVcolorId
p87
V24
p88
sVselected
p89
I01
sVsummary
p90
VHolidays in United States
p91
sVetag
p92
V"1421455444686000"
p93
sVbackgroundColor
p94
V#a47ae2
p95
sVtimeZone
p96
VAmerica/Los_Angeles
p97
sVaccessRole
p98
Vreader
p99
sVid
p100
Ven.usa#holiday@group.v.calendar.google.com
p101
sas.